target datalayout = "e-m:e-p270:32:32-p271:32:32-p272:64:64-i64:64-i128:128-f80:128-n8:16:32:64-S128"
target triple = "x86_64-pc-linux-gnu"

%struct.timespec = type { i64, i64 }

; Function Attrs: inlinehint nounwind uwtable
define internal i64 @_mi_random_shuffle(i64 noundef %0) #3 {
  %2 = alloca i64, align 8
  store i64 %0, ptr %2, align 8, !tbaa !8
  %3 = load i64, ptr %2, align 8, !tbaa !8
  %4 = icmp eq i64 %3, 0
  br i1 %4, label %5, label %6

5:                                                ; preds = %1
  store i64 17, ptr %2, align 8, !tbaa !8
  br label %6

6:                                                ; preds = %5, %1
  %7 = load i64, ptr %2, align 8, !tbaa !8
  %8 = lshr i64 %7, 30
  %9 = load i64, ptr %2, align 8, !tbaa !8
  %10 = xor i64 %9, %8
  store i64 %10, ptr %2, align 8, !tbaa !8
  %11 = load i64, ptr %2, align 8, !tbaa !8
  %12 = mul i64 %11, -4658895280553007687
  store i64 %12, ptr %2, align 8, !tbaa !8
  %13 = load i64, ptr %2, align 8, !tbaa !8
  %14 = lshr i64 %13, 27
  %15 = load i64, ptr %2, align 8, !tbaa !8
  %16 = xor i64 %15, %14
  store i64 %16, ptr %2, align 8, !tbaa !8
  %17 = load i64, ptr %2, align 8, !tbaa !8
  %18 = mul i64 %17, -7723592293110705685
  store i64 %18, ptr %2, align 8, !tbaa !8
  %19 = load i64, ptr %2, align 8, !tbaa !8
  %20 = lshr i64 %19, 31
  %21 = load i64, ptr %2, align 8, !tbaa !8
  %22 = xor i64 %21, %20
  store i64 %22, ptr %2, align 8, !tbaa !8
  %23 = load i64, ptr %2, align 8, !tbaa !8
  ret i64 %23
}

; Function Attrs: nounwind uwtable
define hidden i64 @_mi_os_random_weak(i64 noundef %0) #0 {
  %2 = alloca i64, align 8
  %3 = alloca i64, align 8
  %4 = alloca %struct.timespec, align 8
  %5 = alloca i64, align 8
  %6 = alloca i64, align 8
  store i64 %0, ptr %2, align 8, !tbaa !8
  call void @llvm.lifetime.start.p0(i64 8, ptr %3) #8
  %7 = load i64, ptr %2, align 8, !tbaa !8
  %8 = xor i64 ptrtoint (ptr @_mi_os_random_weak to i64), %7
  store i64 %8, ptr %3, align 8, !tbaa !8
  call void @llvm.lifetime.start.p0(i64 16, ptr %4) #8
  %9 = call i32 @clock_gettime(i32 noundef 1, ptr noundef %4) #8
  %10 = getelementptr inbounds nuw %struct.timespec, ptr %4, i32 0, i32 0
  %11 = load i64, ptr %10, align 8, !tbaa !14
  %12 = load i64, ptr %3, align 8, !tbaa !8
  %13 = xor i64 %12, %11
  store i64 %13, ptr %3, align 8, !tbaa !8
  %14 = getelementptr inbounds nuw %struct.timespec, ptr %4, i32 0, i32 1
  %15 = load i64, ptr %14, align 8, !tbaa !16
  %16 = load i64, ptr %3, align 8, !tbaa !8
  %17 = xor i64 %16, %15
  store i64 %17, ptr %3, align 8, !tbaa !8
  call void @llvm.lifetime.start.p0(i64 8, ptr %5) #8
  %18 = load i64, ptr %3, align 8, !tbaa !8
  %19 = load i64, ptr %3, align 8, !tbaa !8
  %20 = lshr i64 %19, 17
  %21 = xor i64 %18, %20
  %22 = and i64 %21, 15
  %23 = add i64 %22, 1
  store i64 %23, ptr %5, align 8, !tbaa !8
  call void @llvm.lifetime.start.p0(i64 8, ptr %6) #8
  store i64 0, ptr %6, align 8, !tbaa !8
  br label %24

24:                                               ; preds = %32, %1
  %25 = load i64, ptr %6, align 8, !tbaa !8
  %26 = load i64, ptr %5, align 8, !tbaa !8
  %27 = icmp ult i64 %25, %26
  br i1 %27, label %29, label %28

28:                                               ; preds = %24
  call void @llvm.lifetime.end.p0(i64 8, ptr %6) #8
  br label %35

29:                                               ; preds = %24
  %30 = load i64, ptr %3, align 8, !tbaa !8
  %31 = call i64 @_mi_random_shuffle(i64 noundef %30)
  store i64 %31, ptr %3, align 8, !tbaa !8
  br label %32

32:                                               ; preds = %29
  %33 = load i64, ptr %6, align 8, !tbaa !8
  %34 = add i64 %33, 1
  store i64 %34, ptr %6, align 8, !tbaa !8
  br label %24, !llvm.loop !17

35:                                               ; preds = %28
  %36 = load i64, ptr %3, align 8, !tbaa !8
  call void @llvm.lifetime.end.p0(i64 8, ptr %5) #8
  call void @llvm.lifetime.end.p0(i64 16, ptr %4) #8
  call void @llvm.lifetime.end.p0(i64 8, ptr %3) #8
  ret i64 %36
}