; Function Attrs: nounwind uwtable
define hidden i64 @_mi_os_random_weak(i64 noundef %0) #1 {
  %2 = alloca %struct.timespec, align 8
  %3 = xor i64 %0, ptrtoint (ptr @_mi_os_random_weak to i64)
  call void @llvm.lifetime.start.p0(i64 16, ptr nonnull %2) #10
  %4 = call i32 @clock_gettime(i32 noundef 1, ptr noundef nonnull %2) #10
  %5 = load i64, ptr %2, align 8, !tbaa !9
  %6 = xor i64 %3, %5
  %7 = getelementptr inbounds nuw i8, ptr %2, i64 8
  %8 = load i64, ptr %7, align 8, !tbaa !12
  %9 = xor i64 %6, %8
  %10 = lshr i64 %9, 17
  %11 = xor i64 %10, %9
  %12 = and i64 %11, 15
  br label %14

13:                                               ; preds = %14
  call void @llvm.lifetime.end.p0(i64 16, ptr nonnull %2) #10
  ret i64 %23

14:                                               ; preds = %1, %14
  %.012 = phi i64 [ 0, %1 ], [ %24, %14 ]
  %.01011 = phi i64 [ %9, %1 ], [ %23, %14 ]
  %15 = icmp eq i64 %.01011, 0
  %spec.store.select.i = select i1 %15, i64 17, i64 %.01011
  %16 = lshr i64 %spec.store.select.i, 30
  %17 = xor i64 %16, %spec.store.select.i
  %18 = mul i64 %17, -4658895280553007687
  %19 = lshr i64 %18, 27
  %20 = xor i64 %19, %18
  %21 = mul i64 %20, -7723592293110705685
  %22 = lshr i64 %21, 31
  %23 = xor i64 %22, %21
  %24 = add nuw nsw i64 %.012, 1
  %exitcond.not = icmp eq i64 %.012, %12
  br i1 %exitcond.not, label %13, label %14, !llvm.loop !13
}